; Function Attrs: mustprogress nounwind uwtable
define hidden void @_ZN7Imf_3_213RgbaInputFile7FromYcaD2Ev(ptr nocapture noundef nonnull readonly align 8 dereferenceable(392) %this) unnamed_addr #6 align 2 {
entry:
  %_bufBase = getelementptr inbounds i8, ptr %this, i64 96
  %0 = load ptr, ptr %_bufBase, align 8
  %isnull = icmp eq ptr %0, null
  br i1 %isnull, label %delete.end, label %delete.notnull

delete.notnull:                                   ; preds = %entry
  tail call void @_ZdaPv(ptr noundef nonnull %0) #24
  br label %delete.end

delete.end:                                       ; preds = %delete.notnull, %entry
  %_tmpBuf = getelementptr inbounds i8, ptr %this, i64 360
  %1 = load ptr, ptr %_tmpBuf, align 8
  %isnull2 = icmp eq ptr %1, null
  br i1 %isnull2, label %delete.end4, label %delete.notnull3

delete.notnull3:                                  ; preds = %delete.end
  tail call void @_ZdaPv(ptr noundef nonnull %1) #24
  br label %delete.end4

delete.end4:                                      ; preds = %delete.notnull3, %delete.end
  ret void
}